; Function Attrs: mustprogress nounwind uwtable
define internal fastcc void @_ZSt11make_uniqueIN12_GLOBAL__N_131VariadicParamOrParamIdxArgumentEJRKN4llvm6RecordERNS2_9StringRefEEENSt8__detail9_MakeUniqIT_E15__single_objectEDpOT0_(ptr dead_on_unwind noalias nocapture writable writeonly align 8 %0, ptr noundef nonnull align 8 dereferenceable(192) %1, ptr %.0.val, i64 %.8.val) unnamed_addr #0 {
  %3 = alloca %"class.std::__cxx11::basic_string", align 8
  %4 = alloca %"class.std::allocator", align 1
  %5 = tail call noalias noundef nonnull dereferenceable(224) ptr @_Znwm(i64 noundef 224) #25
  call void @llvm.lifetime.start.p0(i64 32, ptr nonnull %3)
  call void @llvm.lifetime.start.p0(i64 1, ptr nonnull %4)
  call void @_ZNSaIcEC1Ev(ptr noundef nonnull align 1 dereferenceable(1) %4) #22
  %6 = call noundef ptr @_ZNSt7__cxx1112basic_stringIcSt11char_traitsIcESaIcEE13_M_local_dataEv(ptr noundef nonnull align 8 dereferenceable(32) %3) #22
  call void @_ZNSt7__cxx1112basic_stringIcSt11char_traitsIcESaIcEE12_Alloc_hiderC1EPcRKS3_(ptr noundef nonnull align 8 dereferenceable(8) %3, ptr noundef %6, ptr noundef nonnull align 1 dereferenceable(1) %4) #22
  %7 = call noundef ptr @_ZNSt7__cxx1112basic_stringIcSt11char_traitsIcESaIcEE13_M_local_dataEv(ptr noundef nonnull align 8 dereferenceable(32) %3) #22
  %8 = call noundef ptr @_ZNKSt7__cxx1112basic_stringIcSt11char_traitsIcESaIcEE7_M_dataEv(ptr noundef nonnull align 8 dereferenceable(32) %3) #22
  call void @_ZNSt7__cxx1112basic_stringIcSt11char_traitsIcESaIcEE13_S_copy_charsEPcPKcS7_(ptr noundef %8, ptr noundef nonnull @.str.543, ptr noundef nonnull getelementptr inbounds (i8, ptr @.str.543, i64 3)) #22
  call void @_ZNSt7__cxx1112basic_stringIcSt11char_traitsIcESaIcEE13_M_set_lengthEm(ptr noundef nonnull align 8 dereferenceable(32) %3, i64 noundef 3) #22
  call fastcc void @_ZN12_GLOBAL__N_116VariadicArgumentC2ERKN4llvm6RecordENS1_9StringRefENSt7__cxx1112basic_stringIcSt11char_traitsIcESaIcEEE(ptr noundef nonnull align 8 dereferenceable(224) %5, ptr noundef nonnull align 8 dereferenceable(192) %1, ptr %.0.val, i64 %.8.val, ptr noundef nonnull %3)
  call void @_ZNSt7__cxx1112basic_stringIcSt11char_traitsIcESaIcEED1Ev(ptr noundef nonnull align 8 dereferenceable(32) %3) #22
  call void @_ZNSaIcED1Ev(ptr noundef nonnull align 1 dereferenceable(1) %4) #22
  store ptr getelementptr inbounds inrange(-16, 216) (i8, ptr @_ZTVN12_GLOBAL__N_131VariadicParamOrParamIdxArgumentE, i64 16), ptr %5, align 8
  call void @llvm.lifetime.end.p0(i64 32, ptr nonnull %3)
  call void @llvm.lifetime.end.p0(i64 1, ptr nonnull %4)
  store ptr %5, ptr %0, align 8
  ret void
}